target datalayout = "e-m:e-p270:32:32-p271:32:32-p272:64:64-i64:64-i128:128-f80:128-n8:16:32:64-S128"
target triple = "x86_64-pc-linux-gnu"

%struct.nameData = type { [64 x i8] }
%struct.HeapTupleData = type { i32, %struct.ItemPointerData, i32, ptr }
%struct.ItemPointerData = type { %struct.BlockIdData, i16 }
%struct.BlockIdData = type { i16, i16 }
%struct.HeapTupleHeaderData = type { %union.anon, %struct.ItemPointerData, i16, i16, i8, [0 x i8] }
%union.anon = type { %struct.HeapTupleFields }
%struct.HeapTupleFields = type { i32, i32, %union.anon.0 }
%union.anon.0 = type { i32 }
%struct.FmgrInfo = type { ptr, i32, i16, i8, i8, i8, ptr, ptr, ptr }
%struct.ScanKeyData = type { i32, i16, i16, i32, i32, %struct.FmgrInfo, i64 }
%struct.FormData_pg_opclass = type { i32, i32, %struct.nameData, i32, i32, i32, i32, i8, i32 }

@.str.1 = private unnamed_addr constant [12 x i8] c"indexcmds.c\00", align 1
@.str.44 = private unnamed_addr constant [61 x i8] c"there are multiple default operator classes for data type %s\00", align 1
@__func__.GetDefaultOpClass = private unnamed_addr constant [18 x i8] c"GetDefaultOpClass\00", align 1

; Function Attrs: inlinehint nounwind uwtable
define internal ptr @GETSTRUCT(ptr noundef %0) #3 {
  %2 = alloca ptr, align 8
  store ptr %0, ptr %2, align 8
  %3 = load ptr, ptr %2, align 8
  %4 = getelementptr inbounds nuw %struct.HeapTupleData, ptr %3, i32 0, i32 3
  %5 = load ptr, ptr %4, align 8
  %6 = load ptr, ptr %2, align 8
  %7 = getelementptr inbounds nuw %struct.HeapTupleData, ptr %6, i32 0, i32 3
  %8 = load ptr, ptr %7, align 8
  %9 = getelementptr inbounds nuw %struct.HeapTupleHeaderData, ptr %8, i32 0, i32 4
  %10 = load i8, ptr %9, align 2
  %11 = zext i8 %10 to i32
  %12 = sext i32 %11 to i64
  %13 = getelementptr inbounds i8, ptr %5, i64 %12
  ret ptr %13
}

; Function Attrs: inlinehint nounwind uwtable
define internal i64 @ObjectIdGetDatum(i32 noundef %0) #3 {
  %2 = alloca i32, align 4
  store i32 %0, ptr %2, align 4
  %3 = load i32, ptr %2, align 4
  %4 = zext i32 %3 to i64
  ret i64 %4
}

; Function Attrs: nounwind uwtable
define dso_local i32 @GetDefaultOpClass(i32 noundef %0, i32 noundef %1) #0 {
  %3 = alloca i32, align 4
  %4 = alloca i32, align 4
  %5 = alloca i32, align 4
  %6 = alloca i32, align 4
  %7 = alloca i32, align 4
  %8 = alloca i32, align 4
  %9 = alloca i32, align 4
  %10 = alloca ptr, align 8
  %11 = alloca [1 x %struct.ScanKeyData], align 16
  %12 = alloca ptr, align 8
  %13 = alloca ptr, align 8
  %14 = alloca i8, align 1
  %15 = alloca ptr, align 8
  %16 = alloca i32, align 4
  store i32 %0, ptr %4, align 4
  store i32 %1, ptr %5, align 4
  call void @llvm.lifetime.start.p0(i64 4, ptr %6) #10
  store i32 0, ptr %6, align 4
  call void @llvm.lifetime.start.p0(i64 4, ptr %7) #10
  store i32 0, ptr %7, align 4
  call void @llvm.lifetime.start.p0(i64 4, ptr %8) #10
  store i32 0, ptr %8, align 4
  call void @llvm.lifetime.start.p0(i64 4, ptr %9) #10
  store i32 0, ptr %9, align 4
  call void @llvm.lifetime.start.p0(i64 8, ptr %10) #10
  call void @llvm.lifetime.start.p0(i64 72, ptr %11) #10
  call void @llvm.lifetime.start.p0(i64 8, ptr %12) #10
  call void @llvm.lifetime.start.p0(i64 8, ptr %13) #10
  call void @llvm.lifetime.start.p0(i64 1, ptr %14) #10
  %17 = load i32, ptr %4, align 4
  %18 = call i32 @getBaseType(i32 noundef %17)
  store i32 %18, ptr %4, align 4
  %19 = load i32, ptr %4, align 4
  %20 = call signext i8 @TypeCategory(i32 noundef %19)
  store i8 %20, ptr %14, align 1
  %21 = call ptr @table_open(i32 noundef 2616, i32 noundef 1)
  store ptr %21, ptr %10, align 8
  %22 = getelementptr inbounds [1 x %struct.ScanKeyData], ptr %11, i64 0, i64 0
  %23 = load i32, ptr %5, align 4
  %24 = call i64 @ObjectIdGetDatum(i32 noundef %23)
  call void @ScanKeyInit(ptr noundef %22, i16 noundef signext 2, i16 noundef zeroext 3, i32 noundef 184, i64 noundef %24)
  %25 = load ptr, ptr %10, align 8
  %26 = getelementptr inbounds [1 x %struct.ScanKeyData], ptr %11, i64 0, i64 0
  %27 = call ptr @systable_beginscan(ptr noundef %25, i32 noundef 2686, i1 noundef zeroext true, ptr noundef null, i32 noundef 1, ptr noundef %26)
  store ptr %27, ptr %12, align 8
  br label %28

28:                                               ; preds = %88, %86, %2
  %29 = load ptr, ptr %12, align 8
  %30 = call ptr @systable_getnext(ptr noundef %29)
  store ptr %30, ptr %13, align 8
  %31 = icmp ne ptr %30, null
  br i1 %31, label %32, label %89

32:                                               ; preds = %28
  call void @llvm.lifetime.start.p0(i64 8, ptr %15) #10
  %33 = load ptr, ptr %13, align 8
  %34 = call ptr @GETSTRUCT(ptr noundef %33)
  store ptr %34, ptr %15, align 8
  %35 = load ptr, ptr %15, align 8
  %36 = getelementptr inbounds nuw %struct.FormData_pg_opclass, ptr %35, i32 0, i32 7
  %37 = load i8, ptr %36, align 4, !range !4, !noundef !5
  %38 = trunc i8 %37 to i1
  br i1 %38, label %40, label %39

39:                                               ; preds = %32
  store i32 2, ptr %16, align 4
  br label %86, !llvm.loop !25

40:                                               ; preds = %32
  %41 = load ptr, ptr %15, align 8
  %42 = getelementptr inbounds nuw %struct.FormData_pg_opclass, ptr %41, i32 0, i32 6
  %43 = load i32, ptr %42, align 4
  %44 = load i32, ptr %4, align 4
  %45 = icmp eq i32 %43, %44
  br i1 %45, label %46, label %52

46:                                               ; preds = %40
  %47 = load i32, ptr %7, align 4
  %48 = add i32 %47, 1
  store i32 %48, ptr %7, align 4
  %49 = load ptr, ptr %15, align 8
  %50 = getelementptr inbounds nuw %struct.FormData_pg_opclass, ptr %49, i32 0, i32 0
  %51 = load i32, ptr %50, align 4
  store i32 %51, ptr %6, align 4
  br label %85

52:                                               ; preds = %40
  %53 = load i32, ptr %7, align 4
  %54 = icmp eq i32 %53, 0
  br i1 %54, label %55, label %84

55:                                               ; preds = %52
  %56 = load i32, ptr %4, align 4
  %57 = load ptr, ptr %15, align 8
  %58 = getelementptr inbounds nuw %struct.FormData_pg_opclass, ptr %57, i32 0, i32 6
  %59 = load i32, ptr %58, align 4
  %60 = call zeroext i1 @IsBinaryCoercible(i32 noundef %56, i32 noundef %59)
  br i1 %60, label %61, label %84

61:                                               ; preds = %55
  %62 = load i8, ptr %14, align 1
  %63 = load ptr, ptr %15, align 8
  %64 = getelementptr inbounds nuw %struct.FormData_pg_opclass, ptr %63, i32 0, i32 6
  %65 = load i32, ptr %64, align 4
  %66 = call zeroext i1 @IsPreferredType(i8 noundef signext %62, i32 noundef %65)
  br i1 %66, label %67, label %73

67:                                               ; preds = %61
  %68 = load i32, ptr %9, align 4
  %69 = add i32 %68, 1
  store i32 %69, ptr %9, align 4
  %70 = load ptr, ptr %15, align 8
  %71 = getelementptr inbounds nuw %struct.FormData_pg_opclass, ptr %70, i32 0, i32 0
  %72 = load i32, ptr %71, align 4
  store i32 %72, ptr %6, align 4
  br label %83

73:                                               ; preds = %61
  %74 = load i32, ptr %9, align 4
  %75 = icmp eq i32 %74, 0
  br i1 %75, label %76, label %82

76:                                               ; preds = %73
  %77 = load i32, ptr %8, align 4
  %78 = add i32 %77, 1
  store i32 %78, ptr %8, align 4
  %79 = load ptr, ptr %15, align 8
  %80 = getelementptr inbounds nuw %struct.FormData_pg_opclass, ptr %79, i32 0, i32 0
  %81 = load i32, ptr %80, align 4
  store i32 %81, ptr %6, align 4
  br label %82

82:                                               ; preds = %76, %73
  br label %83

83:                                               ; preds = %82, %67
  br label %84

84:                                               ; preds = %83, %55, %52
  br label %85

85:                                               ; preds = %84, %46
  store i32 0, ptr %16, align 4
  br label %86

86:                                               ; preds = %85, %39
  call void @llvm.lifetime.end.p0(i64 8, ptr %15) #10
  %87 = load i32, ptr %16, align 4
  switch i32 %87, label %125 [
    i32 0, label %88
    i32 2, label %28
  ]

88:                                               ; preds = %86
  br label %28, !llvm.loop !25

89:                                               ; preds = %28
  %90 = load ptr, ptr %12, align 8
  call void @systable_endscan(ptr noundef %90)
  %91 = load ptr, ptr %10, align 8
  call void @table_close(ptr noundef %91, i32 noundef 1)
  %92 = load i32, ptr %7, align 4
  %93 = icmp sgt i32 %92, 1
  br i1 %93, label %94, label %108

94:                                               ; preds = %89
  br label %95

95:                                               ; preds = %94
  br i1 true, label %96, label %98

96:                                               ; preds = %95
  %97 = call zeroext i1 @errstart_cold(i32 noundef 21, ptr noundef null) #11
  br i1 %97, label %100, label %105

98:                                               ; preds = %95
  %99 = call zeroext i1 @errstart(i32 noundef 21, ptr noundef null)
  br i1 %99, label %100, label %105

100:                                              ; preds = %98, %96
  %101 = call i32 @errcode(i32 noundef 290948)
  %102 = load i32, ptr %4, align 4
  %103 = call ptr @format_type_be(i32 noundef %102)
  %104 = call i32 (ptr, ...) @errmsg(ptr noundef @.str.44, ptr noundef %103)
  call void @errfinish(ptr noundef @.str.1, i32 noundef 2427, ptr noundef @__func__.GetDefaultOpClass)
  br label %105

105:                                              ; preds = %100, %98, %96
  unreachable

106:                                              ; No predecessors!
  br label %107

107:                                              ; preds = %106
  br label %108

108:                                              ; preds = %107, %89
  %109 = load i32, ptr %7, align 4
  %110 = icmp eq i32 %109, 1
  br i1 %110, label %120, label %111

111:                                              ; preds = %108
  %112 = load i32, ptr %9, align 4
  %113 = icmp eq i32 %112, 1
  br i1 %113, label %120, label %114

114:                                              ; preds = %111
  %115 = load i32, ptr %9, align 4
  %116 = icmp eq i32 %115, 0
  br i1 %116, label %117, label %122

117:                                              ; preds = %114
  %118 = load i32, ptr %8, align 4
  %119 = icmp eq i32 %118, 1
  br i1 %119, label %120, label %122

120:                                              ; preds = %117, %111, %108
  %121 = load i32, ptr %6, align 4
  store i32 %121, ptr %3, align 4
  store i32 1, ptr %16, align 4
  br label %123

122:                                              ; preds = %117, %114
  store i32 0, ptr %3, align 4
  store i32 1, ptr %16, align 4
  br label %123

123:                                              ; preds = %122, %120
  call void @llvm.lifetime.end.p0(i64 1, ptr %14) #10
  call void @llvm.lifetime.end.p0(i64 8, ptr %13) #10
  call void @llvm.lifetime.end.p0(i64 8, ptr %12) #10
  call void @llvm.lifetime.end.p0(i64 72, ptr %11) #10
  call void @llvm.lifetime.end.p0(i64 8, ptr %10) #10
  call void @llvm.lifetime.end.p0(i64 4, ptr %9) #10
  call void @llvm.lifetime.end.p0(i64 4, ptr %8) #10
  call void @llvm.lifetime.end.p0(i64 4, ptr %7) #10
  call void @llvm.lifetime.end.p0(i64 4, ptr %6) #10
  %124 = load i32, ptr %3, align 4
  ret i32 %124

125:                                              ; preds = %86
  unreachable
}