; Function Attrs: nounwind uwtable
define dso_local i32 @GetDefaultOpClass(i32 noundef %0, i32 noundef %1) local_unnamed_addr #0 {
  %3 = alloca [1 x %struct.ScanKeyData], align 16
  call void @llvm.lifetime.start.p0(i64 72, ptr nonnull %3) #11
  %4 = tail call i32 @getBaseType(i32 noundef %0) #11
  %5 = tail call signext i8 @TypeCategory(i32 noundef %4) #11
  %6 = tail call ptr @table_open(i32 noundef 2616, i32 noundef 1) #11
  %7 = zext i32 %1 to i64
  call void @ScanKeyInit(ptr noundef nonnull %3, i16 noundef signext 2, i16 noundef zeroext 3, i32 noundef 184, i64 noundef %7) #11
  %8 = call ptr @systable_beginscan(ptr noundef %6, i32 noundef 2686, i1 noundef zeroext true, ptr noundef null, i32 noundef 1, ptr noundef nonnull %3) #11
  %9 = call ptr @systable_getnext(ptr noundef %8) #11
  %.not46 = icmp eq ptr %9, null
  br i1 %.not46, label %._crit_edge, label %.lr.ph

.lr.ph:                                           ; preds = %2, %39
  %10 = phi ptr [ %40, %39 ], [ %9, %2 ]
  %.03350 = phi i32 [ %.1, %39 ], [ 0, %2 ]
  %.03449 = phi i32 [ %.135, %39 ], [ 0, %2 ]
  %.03748 = phi i32 [ %.138, %39 ], [ 0, %2 ]
  %.04047 = phi i32 [ %.141, %39 ], [ 0, %2 ]
  %11 = getelementptr i8, ptr %10, i64 16
  %.val = load ptr, ptr %11, align 8
  %12 = getelementptr inbounds nuw i8, ptr %.val, i64 22
  %13 = load i8, ptr %12, align 2
  %14 = zext i8 %13 to i64
  %15 = getelementptr inbounds nuw i8, ptr %.val, i64 %14
  %16 = getelementptr inbounds nuw i8, ptr %15, i64 88
  %17 = load i8, ptr %16, align 4, !range !4, !noundef !5
  %18 = trunc nuw i8 %17 to i1
  br i1 %18, label %19, label %39, !llvm.loop !21

19:                                               ; preds = %.lr.ph
  %20 = getelementptr inbounds nuw i8, ptr %15, i64 84
  %21 = load i32, ptr %20, align 4
  %22 = icmp eq i32 %21, %4
  br i1 %22, label %23, label %25

23:                                               ; preds = %19
  %24 = add i32 %.03449, 1
  br label %.sink.split

25:                                               ; preds = %19
  %26 = icmp eq i32 %.03449, 0
  br i1 %26, label %27, label %39

27:                                               ; preds = %25
  %28 = call zeroext i1 @IsBinaryCoercible(i32 noundef %4, i32 noundef %21) #11
  br i1 %28, label %29, label %39

29:                                               ; preds = %27
  %30 = load i32, ptr %20, align 4
  %31 = call zeroext i1 @IsPreferredType(i8 noundef signext %5, i32 noundef %30) #11
  br i1 %31, label %32, label %34

32:                                               ; preds = %29
  %33 = add i32 %.04047, 1
  br label %.sink.split

34:                                               ; preds = %29
  %35 = icmp eq i32 %.04047, 0
  br i1 %35, label %36, label %39

36:                                               ; preds = %34
  %37 = add i32 %.03748, 1
  br label %.sink.split

.sink.split:                                      ; preds = %36, %32, %23
  %.141.ph = phi i32 [ 0, %36 ], [ %33, %32 ], [ %.04047, %23 ]
  %.138.ph = phi i32 [ %37, %36 ], [ %.03748, %32 ], [ %.03748, %23 ]
  %.135.ph = phi i32 [ 0, %36 ], [ 0, %32 ], [ %24, %23 ]
  %38 = load i32, ptr %15, align 4
  br label %39

39:                                               ; preds = %.sink.split, %34, %27, %25, %.lr.ph
  %.141 = phi i32 [ %.04047, %.lr.ph ], [ %.04047, %34 ], [ %.04047, %27 ], [ %.04047, %25 ], [ %.141.ph, %.sink.split ]
  %.138 = phi i32 [ %.03748, %.lr.ph ], [ %.03748, %34 ], [ %.03748, %27 ], [ %.03748, %25 ], [ %.138.ph, %.sink.split ]
  %.135 = phi i32 [ %.03449, %.lr.ph ], [ 0, %34 ], [ 0, %27 ], [ %.03449, %25 ], [ %.135.ph, %.sink.split ]
  %.1 = phi i32 [ %.03350, %.lr.ph ], [ %.03350, %34 ], [ %.03350, %27 ], [ %.03350, %25 ], [ %38, %.sink.split ]
  %40 = call ptr @systable_getnext(ptr noundef %8) #11
  %.not = icmp eq ptr %40, null
  br i1 %.not, label %._crit_edge.loopexit, label %.lr.ph

._crit_edge.loopexit:                             ; preds = %39
  %41 = icmp eq i32 %.138, 1
  br label %._crit_edge

._crit_edge:                                      ; preds = %._crit_edge.loopexit, %2
  %.040.lcssa = phi i32 [ 0, %2 ], [ %.141, %._crit_edge.loopexit ]
  %.037.lcssa = phi i1 [ false, %2 ], [ %41, %._crit_edge.loopexit ]
  %.034.lcssa = phi i32 [ 0, %2 ], [ %.135, %._crit_edge.loopexit ]
  %.033.lcssa = phi i32 [ 0, %2 ], [ %.1, %._crit_edge.loopexit ]
  call void @systable_endscan(ptr noundef %8) #11
  call void @table_close(ptr noundef %6, i32 noundef 1) #11
  %42 = icmp sgt i32 %.034.lcssa, 1
  br i1 %42, label %43, label %48

43:                                               ; preds = %._crit_edge
  %44 = call zeroext i1 @errstart_cold(i32 noundef 21, ptr noundef null) #12
  call void @llvm.assume(i1 %44)
  %45 = call i32 @errcode(i32 noundef 290948) #11
  %46 = call ptr @format_type_be(i32 noundef %4) #11
  %47 = call i32 (ptr, ...) @errmsg(ptr noundef nonnull @.str.44, ptr noundef %46) #11
  call void @errfinish(ptr noundef nonnull @.str.1, i32 noundef 2427, ptr noundef nonnull @__func__.GetDefaultOpClass) #11
  unreachable

48:                                               ; preds = %._crit_edge
  %49 = icmp eq i32 %.034.lcssa, 1
  %50 = icmp eq i32 %.040.lcssa, 1
  %or.cond = select i1 %49, i1 true, i1 %50
  %51 = icmp eq i32 %.040.lcssa, 0
  %or.cond3 = select i1 %51, i1 %.037.lcssa, i1 false
  %52 = select i1 %or.cond, i1 true, i1 %or.cond3
  %.0 = select i1 %52, i32 %.033.lcssa, i32 0
  call void @llvm.lifetime.end.p0(i64 72, ptr nonnull %3) #11
  ret i32 %.0
}